; ModuleID = '46/2086.c'
source_filename = "46/2086.c"
target datalayout = "e-m:e-p270:32:32-p271:32:32-p272:64:64-i64:64-f80:128-n8:16:32:64-S128"
target triple = "x86_64-pc-linux-gnu"

@.str = private unnamed_addr constant [6 x i8] c"%d %d\00", align 1
@.str.1 = private unnamed_addr constant [3 x i8] c"%d\00", align 1
@.str.2 = private unnamed_addr constant [4 x i8] c"%d\0A\00", align 1

; Function Attrs: noinline nounwind uwtable
define dso_local i32 @main() #0 {
  %1 = alloca i32, align 4
  %2 = alloca i32, align 4
  %3 = alloca i32, align 4
  %4 = alloca [100 x [100 x i32]], align 16
  %5 = alloca i32, align 4
  %6 = alloca i32, align 4
  %7 = alloca i32, align 4
  %8 = alloca i32, align 4
  %9 = alloca i32, align 4
  %10 = alloca i32, align 4
  %11 = alloca i32, align 4
  %12 = alloca i32, align 4
  %13 = alloca i32, align 4
  store i32 0, i32* %1, align 4
  store i32 0, i32* %10, align 4
  %14 = call i32 (i8*, ...) @__isoc99_scanf(i8* getelementptr inbounds ([6 x i8], [6 x i8]* @.str, i64 0, i64 0), i32* %2, i32* %3)
  store i32 0, i32* %12, align 4
  br label %15

15:                                               ; preds = %36, %0
  %16 = load i32, i32* %12, align 4
  %17 = load i32, i32* %2, align 4
  %18 = icmp slt i32 %16, %17
  br i1 %18, label %19, label %39

19:                                               ; preds = %15
  store i32 0, i32* %13, align 4
  br label %20

20:                                               ; preds = %32, %19
  %21 = load i32, i32* %13, align 4
  %22 = load i32, i32* %3, align 4
  %23 = icmp slt i32 %21, %22
  br i1 %23, label %24, label %35

24:                                               ; preds = %20
  %25 = load i32, i32* %12, align 4
  %26 = sext i32 %25 to i64
  %27 = getelementptr inbounds [100 x [100 x i32]], [100 x [100 x i32]]* %4, i64 0, i64 %26
  %28 = load i32, i32* %13, align 4
  %29 = sext i32 %28 to i64
  %30 = getelementptr inbounds [100 x i32], [100 x i32]* %27, i64 0, i64 %29
  %31 = call i32 (i8*, ...) @__isoc99_scanf(i8* getelementptr inbounds ([3 x i8], [3 x i8]* @.str.1, i64 0, i64 0), i32* %30)
  br label %32

32:                                               ; preds = %24
  %33 = load i32, i32* %13, align 4
  %34 = add nsw i32 %33, 1
  store i32 %34, i32* %13, align 4
  br label %20

35:                                               ; preds = %20
  br label %36

36:                                               ; preds = %35
  %37 = load i32, i32* %12, align 4
  %38 = add nsw i32 %37, 1
  store i32 %38, i32* %12, align 4
  br label %15

39:                                               ; preds = %15
  %40 = load i32, i32* %2, align 4
  %41 = load i32, i32* %3, align 4
  %42 = icmp sgt i32 %40, %41
  br i1 %42, label %43, label %45

43:                                               ; preds = %39
  %44 = load i32, i32* %3, align 4
  store i32 %44, i32* %11, align 4
  br label %47

45:                                               ; preds = %39
  %46 = load i32, i32* %2, align 4
  store i32 %46, i32* %11, align 4
  br label %47

47:                                               ; preds = %45, %43
  store i32 0, i32* %5, align 4
  br label %48

48:                                               ; preds = %142, %47
  %49 = load i32, i32* %5, align 4
  %50 = load i32, i32* %11, align 4
  %51 = sdiv i32 %50, 2
  %52 = icmp slt i32 %49, %51
  br i1 %52, label %53, label %145

53:                                               ; preds = %48
  %54 = load i32, i32* %5, align 4
  %55 = add nsw i32 0, %54
  store i32 %55, i32* %6, align 4
  br label %56

56:                                               ; preds = %72, %53
  %57 = load i32, i32* %6, align 4
  %58 = load i32, i32* %3, align 4
  %59 = sub nsw i32 %58, 1
  %60 = load i32, i32* %5, align 4
  %61 = sub nsw i32 %59, %60
  %62 = icmp slt i32 %57, %61
  br i1 %62, label %63, label %75

63:                                               ; preds = %56
  %64 = load i32, i32* %5, align 4
  %65 = sext i32 %64 to i64
  %66 = getelementptr inbounds [100 x [100 x i32]], [100 x [100 x i32]]* %4, i64 0, i64 %65
  %67 = load i32, i32* %6, align 4
  %68 = sext i32 %67 to i64
  %69 = getelementptr inbounds [100 x i32], [100 x i32]* %66, i64 0, i64 %68
  %70 = load i32, i32* %69, align 4
  %71 = call i32 (i8*, ...) @printf(i8* getelementptr inbounds ([4 x i8], [4 x i8]* @.str.2, i64 0, i64 0), i32 %70)
  br label %72

72:                                               ; preds = %63
  %73 = load i32, i32* %6, align 4
  %74 = add nsw i32 %73, 1
  store i32 %74, i32* %6, align 4
  br label %56

75:                                               ; preds = %56
  %76 = load i32, i32* %5, align 4
  %77 = add nsw i32 0, %76
  store i32 %77, i32* %7, align 4
  br label %78

78:                                               ; preds = %94, %75
  %79 = load i32, i32* %7, align 4
  %80 = load i32, i32* %2, align 4
  %81 = sub nsw i32 %80, 1
  %82 = load i32, i32* %5, align 4
  %83 = sub nsw i32 %81, %82
  %84 = icmp slt i32 %79, %83
  br i1 %84, label %85, label %97

85:                                               ; preds = %78
  %86 = load i32, i32* %7, align 4
  %87 = sext i32 %86 to i64
  %88 = getelementptr inbounds [100 x [100 x i32]], [100 x [100 x i32]]* %4, i64 0, i64 %87
  %89 = load i32, i32* %6, align 4
  %90 = sext i32 %89 to i64
  %91 = getelementptr inbounds [100 x i32], [100 x i32]* %88, i64 0, i64 %90
  %92 = load i32, i32* %91, align 4
  %93 = call i32 (i8*, ...) @printf(i8* getelementptr inbounds ([4 x i8], [4 x i8]* @.str.2, i64 0, i64 0), i32 %92)
  br label %94

94:                                               ; preds = %85
  %95 = load i32, i32* %7, align 4
  %96 = add nsw i32 %95, 1
  store i32 %96, i32* %7, align 4
  br label %78

97:                                               ; preds = %78
  %98 = load i32, i32* %3, align 4
  %99 = sub nsw i32 %98, 1
  %100 = load i32, i32* %5, align 4
  %101 = sub nsw i32 %99, %100
  store i32 %101, i32* %8, align 4
  br label %102

102:                                              ; preds = %116, %97
  %103 = load i32, i32* %8, align 4
  %104 = load i32, i32* %5, align 4
  %105 = add nsw i32 0, %104
  %106 = icmp sgt i32 %103, %105
  br i1 %106, label %107, label %119

107:                                              ; preds = %102
  %108 = load i32, i32* %7, align 4
  %109 = sext i32 %108 to i64
  %110 = getelementptr inbounds [100 x [100 x i32]], [100 x [100 x i32]]* %4, i64 0, i64 %109
  %111 = load i32, i32* %8, align 4
  %112 = sext i32 %111 to i64
  %113 = getelementptr inbounds [100 x i32], [100 x i32]* %110, i64 0, i64 %112
  %114 = load i32, i32* %113, align 4
  %115 = call i32 (i8*, ...) @printf(i8* getelementptr inbounds ([4 x i8], [4 x i8]* @.str.2, i64 0, i64 0), i32 %114)
  br label %116

116:                                              ; preds = %107
  %117 = load i32, i32* %8, align 4
  %118 = add nsw i32 %117, -1
  store i32 %118, i32* %8, align 4
  br label %102

119:                                              ; preds = %102
  %120 = load i32, i32* %2, align 4
  %121 = sub nsw i32 %120, 1
  %122 = load i32, i32* %5, align 4
  %123 = sub nsw i32 %121, %122
  store i32 %123, i32* %9, align 4
  br label %124

124:                                              ; preds = %138, %119
  %125 = load i32, i32* %9, align 4
  %126 = load i32, i32* %5, align 4
  %127 = add nsw i32 0, %126
  %128 = icmp sgt i32 %125, %127
  br i1 %128, label %129, label %141

129:                                              ; preds = %124
  %130 = load i32, i32* %9, align 4
  %131 = sext i32 %130 to i64
  %132 = getelementptr inbounds [100 x [100 x i32]], [100 x [100 x i32]]* %4, i64 0, i64 %131
  %133 = load i32, i32* %8, align 4
  %134 = sext i32 %133 to i64
  %135 = getelementptr inbounds [100 x i32], [100 x i32]* %132, i64 0, i64 %134
  %136 = load i32, i32* %135, align 4
  %137 = call i32 (i8*, ...) @printf(i8* getelementptr inbounds ([4 x i8], [4 x i8]* @.str.2, i64 0, i64 0), i32 %136)
  br label %138

138:                                              ; preds = %129
  %139 = load i32, i32* %9, align 4
  %140 = add nsw i32 %139, -1
  store i32 %140, i32* %9, align 4
  br label %124

141:                                              ; preds = %124
  br label %142

142:                                              ; preds = %141
  %143 = load i32, i32* %5, align 4
  %144 = add nsw i32 %143, 1
  store i32 %144, i32* %5, align 4
  br label %48

145:                                              ; preds = %48
  %146 = load i32, i32* %2, align 4
  %147 = srem i32 %146, 2
  %148 = icmp eq i32 %147, 1
  br i1 %148, label %149, label %177

149:                                              ; preds = %145
  %150 = load i32, i32* %3, align 4
  %151 = load i32, i32* %2, align 4
  %152 = icmp sge i32 %150, %151
  br i1 %152, label %153, label %177

153:                                              ; preds = %149
  %154 = load i32, i32* %2, align 4
  %155 = sdiv i32 %154, 2
  store i32 %155, i32* %10, align 4
  %156 = load i32, i32* %10, align 4
  store i32 %156, i32* %6, align 4
  br label %157

157:                                              ; preds = %173, %153
  %158 = load i32, i32* %6, align 4
  %159 = load i32, i32* %3, align 4
  %160 = sub nsw i32 %159, 1
  %161 = load i32, i32* %10, align 4
  %162 = sub nsw i32 %160, %161
  %163 = icmp sle i32 %158, %162
  br i1 %163, label %164, label %176

164:                                              ; preds = %157
  %165 = load i32, i32* %10, align 4
  %166 = sext i32 %165 to i64
  %167 = getelementptr inbounds [100 x [100 x i32]], [100 x [100 x i32]]* %4, i64 0, i64 %166
  %168 = load i32, i32* %6, align 4
  %169 = sext i32 %168 to i64
  %170 = getelementptr inbounds [100 x i32], [100 x i32]* %167, i64 0, i64 %169
  %171 = load i32, i32* %170, align 4
  %172 = call i32 (i8*, ...) @printf(i8* getelementptr inbounds ([4 x i8], [4 x i8]* @.str.2, i64 0, i64 0), i32 %171)
  br label %173

173:                                              ; preds = %164
  %174 = load i32, i32* %6, align 4
  %175 = add nsw i32 %174, 1
  store i32 %175, i32* %6, align 4
  br label %157

176:                                              ; preds = %157
  br label %210

177:                                              ; preds = %149, %145
  %178 = load i32, i32* %3, align 4
  %179 = srem i32 %178, 2
  %180 = icmp eq i32 %179, 1
  br i1 %180, label %181, label %209

181:                                              ; preds = %177
  %182 = load i32, i32* %2, align 4
  %183 = load i32, i32* %3, align 4
  %184 = icmp sge i32 %182, %183
  br i1 %184, label %185, label %209

185:                                              ; preds = %181
  %186 = load i32, i32* %3, align 4
  %187 = sdiv i32 %186, 2
  store i32 %187, i32* %10, align 4
  %188 = load i32, i32* %10, align 4
  store i32 %188, i32* %5, align 4
  br label %189

189:                                              ; preds = %205, %185
  %190 = load i32, i32* %5, align 4
  %191 = load i32, i32* %2, align 4
  %192 = sub nsw i32 %191, 1
  %193 = load i32, i32* %10, align 4
  %194 = sub nsw i32 %192, %193
  %195 = icmp sle i32 %190, %194
  br i1 %195, label %196, label %208

196:                                              ; preds = %189
  %197 = load i32, i32* %5, align 4
  %198 = sext i32 %197 to i64
  %199 = getelementptr inbounds [100 x [100 x i32]], [100 x [100 x i32]]* %4, i64 0, i64 %198
  %200 = load i32, i32* %10, align 4
  %201 = sext i32 %200 to i64
  %202 = getelementptr inbounds [100 x i32], [100 x i32]* %199, i64 0, i64 %201
  %203 = load i32, i32* %202, align 4
  %204 = call i32 (i8*, ...) @printf(i8* getelementptr inbounds ([4 x i8], [4 x i8]* @.str.2, i64 0, i64 0), i32 %203)
  br label %205

205:                                              ; preds = %196
  %206 = load i32, i32* %5, align 4
  %207 = add nsw i32 %206, 1
  store i32 %207, i32* %5, align 4
  br label %189

208:                                              ; preds = %189
  br label %209

209:                                              ; preds = %208, %181, %177
  br label %210

210:                                              ; preds = %209, %176
  ret i32 0
}

declare dso_local i32 @__isoc99_scanf(i8*, ...) #1

declare dso_local i32 @printf(i8*, ...) #1


!llvm.module.flags = !{!0}
!llvm.ident = !{!1}

!0 = !{i32 1, !"wchar_size", i32 4}
!1 = !{!"clang version 10.0.0-4ubuntu1 "}
